target datalayout = "e-m:e-p270:32:32-p271:32:32-p272:64:64-i64:64-i128:128-f80:128-n8:16:32:64-S128"
target triple = "x86_64-pc-linux-gnu"

%"class.icu_77::RegexMatcher" = type { %"class.icu_77::UObject", ptr, ptr, ptr, ptr, ptr, i64, i32, i64, i64, i64, i64, i64, i64, i64, i64, i8, i8, i8, i64, i64, i64, i64, i8, i8, ptr, ptr, ptr, [8 x i64], i32, i32, i32, i32, ptr, ptr, ptr, ptr, i8, i8, i32, ptr, ptr }
%"class.icu_77::UObject" = type { ptr }
%"class.icu_77::RegexStaticSets" = type { [8 x i8], [13 x %"class.icu_77::UnicodeSet"], [13 x %"struct.icu_77::Regex8BitSet"], [3 x %"class.icu_77::UnicodeSet"], %"class.icu_77::UnicodeSet", ptr, ptr }
%"struct.icu_77::Regex8BitSet" = type { [32 x i8] }
%"class.icu_77::UnicodeSet" = type <{ %"class.icu_77::UnicodeFilter", ptr, i32, i32, i8, [7 x i8], ptr, ptr, i32, [4 x i8], ptr, i32, [4 x i8], ptr, ptr, [25 x i32], [4 x i8] }>
%"class.icu_77::UnicodeFilter" = type { %"class.icu_77::UnicodeFunctor", %"class.icu_77::UnicodeMatcher" }
%"class.icu_77::UnicodeFunctor" = type { %"class.icu_77::UObject" }
%"class.icu_77::UnicodeMatcher" = type { ptr }
%struct.UText = type { i32, i32, i32, i32, i64, i32, i32, i64, i32, i32, ptr, ptr, ptr, ptr, ptr, ptr, ptr, ptr, i64, i32, i32, i64, i32, i32 }
%struct.UTextFuncs = type { i32, i32, i32, i32, ptr, ptr, ptr, ptr, ptr, ptr, ptr, ptr, ptr, ptr, ptr, ptr }

@_ZN6icu_7715RegexStaticSets11gStaticSetsE = external global ptr, align 8

; Function Attrs: mustprogress uwtable
define noundef signext i8 @_ZN6icu_7712RegexMatcher14isWordBoundaryEl(ptr noundef nonnull align 8 dereferenceable(336) %0, i64 noundef %1) #1 align 2 {
  %3 = alloca i8, align 1
  %4 = alloca ptr, align 8
  %5 = alloca i64, align 8
  %6 = alloca i8, align 1
  %7 = alloca i8, align 1
  %8 = alloca i64, align 8
  %9 = alloca i32, align 4
  %10 = alloca i32, align 4
  %11 = alloca i8, align 1
  %12 = alloca i32, align 4
  store ptr %0, ptr %4, align 8, !tbaa !23
  store i64 %1, ptr %5, align 8, !tbaa !18
  %13 = load ptr, ptr %4, align 8
  call void @llvm.lifetime.start.p0(i64 1, ptr %6) #11
  store i8 0, ptr %6, align 1, !tbaa !126
  call void @llvm.lifetime.start.p0(i64 1, ptr %7) #11
  store i8 0, ptr %7, align 1, !tbaa !126
  %14 = load i64, ptr %5, align 8, !tbaa !18
  %15 = getelementptr inbounds nuw %"class.icu_77::RegexMatcher", ptr %13, i32 0, i32 13
  %16 = load i64, ptr %15, align 8, !tbaa !61
  %17 = icmp sge i64 %14, %16
  br i1 %17, label %18, label %20

18:                                               ; preds = %2
  %19 = getelementptr inbounds nuw %"class.icu_77::RegexMatcher", ptr %13, i32 0, i32 23
  store i8 1, ptr %19, align 8, !tbaa !71
  br label %121

20:                                               ; preds = %2
  br label %21

21:                                               ; preds = %20
  call void @llvm.lifetime.start.p0(i64 8, ptr %8) #11
  %22 = load i64, ptr %5, align 8, !tbaa !18
  %23 = getelementptr inbounds nuw %"class.icu_77::RegexMatcher", ptr %13, i32 0, i32 4
  %24 = load ptr, ptr %23, align 8, !tbaa !87
  %25 = getelementptr inbounds nuw %struct.UText, ptr %24, i32 0, i32 7
  %26 = load i64, ptr %25, align 8, !tbaa !103
  %27 = sub nsw i64 %22, %26
  store i64 %27, ptr %8, align 8, !tbaa !18
  %28 = load i64, ptr %8, align 8, !tbaa !18
  %29 = icmp sge i64 %28, 0
  br i1 %29, label %30, label %54

30:                                               ; preds = %21
  %31 = load i64, ptr %8, align 8, !tbaa !18
  %32 = getelementptr inbounds nuw %"class.icu_77::RegexMatcher", ptr %13, i32 0, i32 4
  %33 = load ptr, ptr %32, align 8, !tbaa !87
  %34 = getelementptr inbounds nuw %struct.UText, ptr %33, i32 0, i32 6
  %35 = load i32, ptr %34, align 4, !tbaa !107
  %36 = sext i32 %35 to i64
  %37 = icmp slt i64 %31, %36
  br i1 %37, label %38, label %54

38:                                               ; preds = %30
  %39 = getelementptr inbounds nuw %"class.icu_77::RegexMatcher", ptr %13, i32 0, i32 4
  %40 = load ptr, ptr %39, align 8, !tbaa !87
  %41 = getelementptr inbounds nuw %struct.UText, ptr %40, i32 0, i32 10
  %42 = load ptr, ptr %41, align 8, !tbaa !108
  %43 = load i64, ptr %8, align 8, !tbaa !18
  %44 = getelementptr inbounds i16, ptr %42, i64 %43
  %45 = load i16, ptr %44, align 2, !tbaa !113
  %46 = zext i16 %45 to i32
  %47 = icmp slt i32 %46, 56320
  br i1 %47, label %48, label %54

48:                                               ; preds = %38
  %49 = load i64, ptr %8, align 8, !tbaa !18
  %50 = trunc i64 %49 to i32
  %51 = getelementptr inbounds nuw %"class.icu_77::RegexMatcher", ptr %13, i32 0, i32 4
  %52 = load ptr, ptr %51, align 8, !tbaa !87
  %53 = getelementptr inbounds nuw %struct.UText, ptr %52, i32 0, i32 8
  store i32 %50, ptr %53, align 8, !tbaa !115
  br label %58

54:                                               ; preds = %38, %30, %21
  %55 = getelementptr inbounds nuw %"class.icu_77::RegexMatcher", ptr %13, i32 0, i32 4
  %56 = load ptr, ptr %55, align 8, !tbaa !87
  %57 = load i64, ptr %5, align 8, !tbaa !18
  call void @utext_setNativeIndex_77(ptr noundef %56, i64 noundef %57)
  br label %58

58:                                               ; preds = %54, %48
  call void @llvm.lifetime.end.p0(i64 8, ptr %8) #11
  br label %59

59:                                               ; preds = %58
  br label %60

60:                                               ; preds = %59
  call void @llvm.lifetime.start.p0(i64 4, ptr %9) #11
  %61 = getelementptr inbounds nuw %"class.icu_77::RegexMatcher", ptr %13, i32 0, i32 4
  %62 = load ptr, ptr %61, align 8, !tbaa !87
  %63 = getelementptr inbounds nuw %struct.UText, ptr %62, i32 0, i32 8
  %64 = load i32, ptr %63, align 8, !tbaa !115
  %65 = getelementptr inbounds nuw %"class.icu_77::RegexMatcher", ptr %13, i32 0, i32 4
  %66 = load ptr, ptr %65, align 8, !tbaa !87
  %67 = getelementptr inbounds nuw %struct.UText, ptr %66, i32 0, i32 9
  %68 = load i32, ptr %67, align 4, !tbaa !116
  %69 = icmp slt i32 %64, %68
  br i1 %69, label %70, label %97

70:                                               ; preds = %60
  %71 = getelementptr inbounds nuw %"class.icu_77::RegexMatcher", ptr %13, i32 0, i32 4
  %72 = load ptr, ptr %71, align 8, !tbaa !87
  %73 = getelementptr inbounds nuw %struct.UText, ptr %72, i32 0, i32 10
  %74 = load ptr, ptr %73, align 8, !tbaa !108
  %75 = getelementptr inbounds nuw %"class.icu_77::RegexMatcher", ptr %13, i32 0, i32 4
  %76 = load ptr, ptr %75, align 8, !tbaa !87
  %77 = getelementptr inbounds nuw %struct.UText, ptr %76, i32 0, i32 8
  %78 = load i32, ptr %77, align 8, !tbaa !115
  %79 = sext i32 %78 to i64
  %80 = getelementptr inbounds i16, ptr %74, i64 %79
  %81 = load i16, ptr %80, align 2, !tbaa !113
  %82 = zext i16 %81 to i32
  %83 = icmp slt i32 %82, 55296
  br i1 %83, label %84, label %97

84:                                               ; preds = %70
  %85 = getelementptr inbounds nuw %"class.icu_77::RegexMatcher", ptr %13, i32 0, i32 4
  %86 = load ptr, ptr %85, align 8, !tbaa !87
  %87 = getelementptr inbounds nuw %struct.UText, ptr %86, i32 0, i32 10
  %88 = load ptr, ptr %87, align 8, !tbaa !108
  %89 = getelementptr inbounds nuw %"class.icu_77::RegexMatcher", ptr %13, i32 0, i32 4
  %90 = load ptr, ptr %89, align 8, !tbaa !87
  %91 = getelementptr inbounds nuw %struct.UText, ptr %90, i32 0, i32 8
  %92 = load i32, ptr %91, align 8, !tbaa !115
  %93 = sext i32 %92 to i64
  %94 = getelementptr inbounds i16, ptr %88, i64 %93
  %95 = load i16, ptr %94, align 2, !tbaa !113
  %96 = zext i16 %95 to i32
  br label %101

97:                                               ; preds = %70, %60
  %98 = getelementptr inbounds nuw %"class.icu_77::RegexMatcher", ptr %13, i32 0, i32 4
  %99 = load ptr, ptr %98, align 8, !tbaa !87
  %100 = call i32 @utext_current32_77(ptr noundef %99)
  br label %101

101:                                              ; preds = %97, %84
  %102 = phi i32 [ %96, %84 ], [ %100, %97 ]
  store i32 %102, ptr %9, align 4, !tbaa !14
  %103 = load i32, ptr %9, align 4, !tbaa !14
  %104 = call signext i8 @u_hasBinaryProperty_77(i32 noundef %103, i32 noundef 11)
  %105 = icmp ne i8 %104, 0
  br i1 %105, label %111, label %106

106:                                              ; preds = %101
  %107 = load i32, ptr %9, align 4, !tbaa !14
  %108 = call signext i8 @u_charType_77(i32 noundef %107)
  %109 = sext i8 %108 to i32
  %110 = icmp eq i32 %109, 16
  br i1 %110, label %111, label %112

111:                                              ; preds = %106, %101
  store i8 0, ptr %3, align 1
  store i32 1, ptr %10, align 4
  br label %118

112:                                              ; preds = %106
  %113 = load ptr, ptr @_ZN6icu_7715RegexStaticSets11gStaticSetsE, align 8, !tbaa !39
  %114 = getelementptr inbounds nuw %"class.icu_77::RegexStaticSets", ptr %113, i32 0, i32 1
  %115 = getelementptr inbounds nuw [13 x %"class.icu_77::UnicodeSet"], ptr %114, i64 0, i64 1
  %116 = load i32, ptr %9, align 4, !tbaa !14
  %117 = call noundef signext i8 @_ZNK6icu_7710UnicodeSet8containsEi(ptr noundef nonnull align 8 dereferenceable(200) %115, i32 noundef %116)
  store i8 %117, ptr %7, align 1, !tbaa !126
  store i32 0, ptr %10, align 4
  br label %118

118:                                              ; preds = %112, %111
  call void @llvm.lifetime.end.p0(i64 4, ptr %9) #11
  %119 = load i32, ptr %10, align 4
  switch i32 %119, label %226 [
    i32 0, label %120
  ]

120:                                              ; preds = %118
  br label %121

121:                                              ; preds = %120, %18
  call void @llvm.lifetime.start.p0(i64 1, ptr %11) #11
  store i8 0, ptr %11, align 1, !tbaa !126
  br label %122

122:                                              ; preds = %217, %121
  %123 = getelementptr inbounds nuw %"class.icu_77::RegexMatcher", ptr %13, i32 0, i32 4
  %124 = load ptr, ptr %123, align 8, !tbaa !87
  %125 = getelementptr inbounds nuw %struct.UText, ptr %124, i32 0, i32 8
  %126 = load i32, ptr %125, align 8, !tbaa !115
  %127 = getelementptr inbounds nuw %"class.icu_77::RegexMatcher", ptr %13, i32 0, i32 4
  %128 = load ptr, ptr %127, align 8, !tbaa !87
  %129 = getelementptr inbounds nuw %struct.UText, ptr %128, i32 0, i32 6
  %130 = load i32, ptr %129, align 4, !tbaa !107
  %131 = icmp sle i32 %126, %130
  br i1 %131, label %132, label %143

132:                                              ; preds = %122
  %133 = getelementptr inbounds nuw %"class.icu_77::RegexMatcher", ptr %13, i32 0, i32 4
  %134 = load ptr, ptr %133, align 8, !tbaa !87
  %135 = getelementptr inbounds nuw %struct.UText, ptr %134, i32 0, i32 7
  %136 = load i64, ptr %135, align 8, !tbaa !103
  %137 = getelementptr inbounds nuw %"class.icu_77::RegexMatcher", ptr %13, i32 0, i32 4
  %138 = load ptr, ptr %137, align 8, !tbaa !87
  %139 = getelementptr inbounds nuw %struct.UText, ptr %138, i32 0, i32 8
  %140 = load i32, ptr %139, align 8, !tbaa !115
  %141 = sext i32 %140 to i64
  %142 = add nsw i64 %136, %141
  br label %153

143:                                              ; preds = %122
  %144 = getelementptr inbounds nuw %"class.icu_77::RegexMatcher", ptr %13, i32 0, i32 4
  %145 = load ptr, ptr %144, align 8, !tbaa !87
  %146 = getelementptr inbounds nuw %struct.UText, ptr %145, i32 0, i32 11
  %147 = load ptr, ptr %146, align 8, !tbaa !109
  %148 = getelementptr inbounds nuw %struct.UTextFuncs, ptr %147, i32 0, i32 10
  %149 = load ptr, ptr %148, align 8, !tbaa !131
  %150 = getelementptr inbounds nuw %"class.icu_77::RegexMatcher", ptr %13, i32 0, i32 4
  %151 = load ptr, ptr %150, align 8, !tbaa !87
  %152 = call noundef i64 %149(ptr noundef %151)
  br label %153

153:                                              ; preds = %143, %132
  %154 = phi i64 [ %142, %132 ], [ %152, %143 ]
  %155 = getelementptr inbounds nuw %"class.icu_77::RegexMatcher", ptr %13, i32 0, i32 12
  %156 = load i64, ptr %155, align 8, !tbaa !60
  %157 = icmp sle i64 %154, %156
  br i1 %157, label %158, label %159

158:                                              ; preds = %153
  br label %218

159:                                              ; preds = %153
  call void @llvm.lifetime.start.p0(i64 4, ptr %12) #11
  %160 = getelementptr inbounds nuw %"class.icu_77::RegexMatcher", ptr %13, i32 0, i32 4
  %161 = load ptr, ptr %160, align 8, !tbaa !87
  %162 = getelementptr inbounds nuw %struct.UText, ptr %161, i32 0, i32 8
  %163 = load i32, ptr %162, align 8, !tbaa !115
  %164 = icmp sgt i32 %163, 0
  br i1 %164, label %165, label %194

165:                                              ; preds = %159
  %166 = getelementptr inbounds nuw %"class.icu_77::RegexMatcher", ptr %13, i32 0, i32 4
  %167 = load ptr, ptr %166, align 8, !tbaa !87
  %168 = getelementptr inbounds nuw %struct.UText, ptr %167, i32 0, i32 10
  %169 = load ptr, ptr %168, align 8, !tbaa !108
  %170 = getelementptr inbounds nuw %"class.icu_77::RegexMatcher", ptr %13, i32 0, i32 4
  %171 = load ptr, ptr %170, align 8, !tbaa !87
  %172 = getelementptr inbounds nuw %struct.UText, ptr %171, i32 0, i32 8
  %173 = load i32, ptr %172, align 8, !tbaa !115
  %174 = sub nsw i32 %173, 1
  %175 = sext i32 %174 to i64
  %176 = getelementptr inbounds i16, ptr %169, i64 %175
  %177 = load i16, ptr %176, align 2, !tbaa !113
  %178 = zext i16 %177 to i32
  %179 = icmp slt i32 %178, 55296
  br i1 %179, label %180, label %194

180:                                              ; preds = %165
  %181 = getelementptr inbounds nuw %"class.icu_77::RegexMatcher", ptr %13, i32 0, i32 4
  %182 = load ptr, ptr %181, align 8, !tbaa !87
  %183 = getelementptr inbounds nuw %struct.UText, ptr %182, i32 0, i32 10
  %184 = load ptr, ptr %183, align 8, !tbaa !108
  %185 = getelementptr inbounds nuw %"class.icu_77::RegexMatcher", ptr %13, i32 0, i32 4
  %186 = load ptr, ptr %185, align 8, !tbaa !87
  %187 = getelementptr inbounds nuw %struct.UText, ptr %186, i32 0, i32 8
  %188 = load i32, ptr %187, align 8, !tbaa !115
  %189 = add nsw i32 %188, -1
  store i32 %189, ptr %187, align 8, !tbaa !115
  %190 = sext i32 %189 to i64
  %191 = getelementptr inbounds i16, ptr %184, i64 %190
  %192 = load i16, ptr %191, align 2, !tbaa !113
  %193 = zext i16 %192 to i32
  br label %198

194:                                              ; preds = %165, %159
  %195 = getelementptr inbounds nuw %"class.icu_77::RegexMatcher", ptr %13, i32 0, i32 4
  %196 = load ptr, ptr %195, align 8, !tbaa !87
  %197 = call i32 @utext_previous32_77(ptr noundef %196)
  br label %198

198:                                              ; preds = %194, %180
  %199 = phi i32 [ %193, %180 ], [ %197, %194 ]
  store i32 %199, ptr %12, align 4, !tbaa !14
  %200 = load i32, ptr %12, align 4, !tbaa !14
  %201 = call signext i8 @u_hasBinaryProperty_77(i32 noundef %200, i32 noundef 11)
  %202 = icmp ne i8 %201, 0
  br i1 %202, label %214, label %203

203:                                              ; preds = %198
  %204 = load i32, ptr %12, align 4, !tbaa !14
  %205 = call signext i8 @u_charType_77(i32 noundef %204)
  %206 = sext i8 %205 to i32
  %207 = icmp eq i32 %206, 16
  br i1 %207, label %214, label %208

208:                                              ; preds = %203
  %209 = load ptr, ptr @_ZN6icu_7715RegexStaticSets11gStaticSetsE, align 8, !tbaa !39
  %210 = getelementptr inbounds nuw %"class.icu_77::RegexStaticSets", ptr %209, i32 0, i32 1
  %211 = getelementptr inbounds nuw [13 x %"class.icu_77::UnicodeSet"], ptr %210, i64 0, i64 1
  %212 = load i32, ptr %12, align 4, !tbaa !14
  %213 = call noundef signext i8 @_ZNK6icu_7710UnicodeSet8containsEi(ptr noundef nonnull align 8 dereferenceable(200) %211, i32 noundef %212)
  store i8 %213, ptr %11, align 1, !tbaa !126
  store i32 4, ptr %10, align 4
  br label %215

214:                                              ; preds = %203, %198
  store i32 0, ptr %10, align 4
  br label %215

215:                                              ; preds = %214, %208
  call void @llvm.lifetime.end.p0(i64 4, ptr %12) #11
  %216 = load i32, ptr %10, align 4
  switch i32 %216, label %228 [
    i32 0, label %217
    i32 4, label %218
  ]

217:                                              ; preds = %215
  br label %122, !llvm.loop !197

218:                                              ; preds = %215, %158
  %219 = load i8, ptr %7, align 1, !tbaa !126
  %220 = sext i8 %219 to i32
  %221 = load i8, ptr %11, align 1, !tbaa !126
  %222 = sext i8 %221 to i32
  %223 = xor i32 %220, %222
  %224 = trunc i32 %223 to i8
  store i8 %224, ptr %6, align 1, !tbaa !126
  %225 = load i8, ptr %6, align 1, !tbaa !126
  store i8 %225, ptr %3, align 1
  store i32 1, ptr %10, align 4
  call void @llvm.lifetime.end.p0(i64 1, ptr %11) #11
  br label %226

226:                                              ; preds = %218, %118
  call void @llvm.lifetime.end.p0(i64 1, ptr %7) #11
  call void @llvm.lifetime.end.p0(i64 1, ptr %6) #11
  %227 = load i8, ptr %3, align 1
  ret i8 %227

228:                                              ; preds = %215
  unreachable
}