; Function Attrs: mustprogress uwtable
define noundef signext i8 @_ZN6icu_7712RegexMatcher14isWordBoundaryEl(ptr noundef nonnull align 8 captures(none) dereferenceable(336) %0, i64 noundef %1) local_unnamed_addr #1 align 2 {
  %3 = getelementptr inbounds nuw i8, ptr %0, i64 104
  %4 = load i64, ptr %3, align 8, !tbaa !73
  %.not = icmp slt i64 %1, %4
  br i1 %.not, label %7, label %5

5:                                                ; preds = %2
  %6 = getelementptr inbounds nuw i8, ptr %0, i64 168
  store i8 1, ptr %6, align 8, !tbaa !32
  br label %56

7:                                                ; preds = %2
  %8 = getelementptr inbounds nuw i8, ptr %0, i64 32
  %9 = load ptr, ptr %8, align 8, !tbaa !77
  %10 = getelementptr inbounds nuw i8, ptr %9, i64 32
  %11 = load i64, ptr %10, align 8, !tbaa !83
  %12 = sub nsw i64 %1, %11
  %13 = icmp sgt i64 %12, -1
  br i1 %13, label %14, label %28

14:                                               ; preds = %7
  %15 = getelementptr inbounds nuw i8, ptr %9, i64 28
  %16 = load i32, ptr %15, align 4, !tbaa !87
  %17 = sext i32 %16 to i64
  %18 = icmp slt i64 %12, %17
  br i1 %18, label %19, label %28

19:                                               ; preds = %14
  %20 = getelementptr inbounds nuw i8, ptr %9, i64 48
  %21 = load ptr, ptr %20, align 8, !tbaa !88
  %22 = getelementptr inbounds nuw i16, ptr %21, i64 %12
  %23 = load i16, ptr %22, align 2, !tbaa !93
  %24 = icmp ult i16 %23, -9216
  br i1 %24, label %25, label %28

25:                                               ; preds = %19
  %26 = trunc nuw nsw i64 %12 to i32
  %27 = getelementptr inbounds nuw i8, ptr %9, i64 40
  store i32 %26, ptr %27, align 8, !tbaa !95
  br label %29

28:                                               ; preds = %19, %14, %7
  tail call void @utext_setNativeIndex_77(ptr noundef nonnull %9, i64 noundef %1)
  %.pre = load ptr, ptr %8, align 8, !tbaa !77
  %.phi.trans.insert = getelementptr inbounds nuw i8, ptr %.pre, i64 40
  %.pre40 = load i32, ptr %.phi.trans.insert, align 8, !tbaa !95
  br label %29

29:                                               ; preds = %28, %25
  %30 = phi i32 [ %.pre40, %28 ], [ %26, %25 ]
  %31 = phi ptr [ %.pre, %28 ], [ %9, %25 ]
  %32 = getelementptr inbounds nuw i8, ptr %31, i64 44
  %33 = load i32, ptr %32, align 4, !tbaa !96
  %34 = icmp slt i32 %30, %33
  br i1 %34, label %35, label %44

35:                                               ; preds = %29
  %36 = getelementptr inbounds nuw i8, ptr %31, i64 48
  %37 = load ptr, ptr %36, align 8, !tbaa !88
  %38 = sext i32 %30 to i64
  %39 = getelementptr inbounds i16, ptr %37, i64 %38
  %40 = load i16, ptr %39, align 2, !tbaa !93
  %41 = icmp ult i16 %40, -10240
  br i1 %41, label %42, label %44

42:                                               ; preds = %35
  %43 = zext i16 %40 to i32
  br label %46

44:                                               ; preds = %35, %29
  %45 = tail call i32 @utext_current32_77(ptr noundef nonnull %31)
  br label %46

46:                                               ; preds = %44, %42
  %47 = phi i32 [ %43, %42 ], [ %45, %44 ]
  %48 = tail call signext i8 @u_hasBinaryProperty_77(i32 noundef %47, i32 noundef 11)
  %.not30 = icmp eq i8 %48, 0
  br i1 %.not30, label %49, label %.thread

49:                                               ; preds = %46
  %50 = tail call signext i8 @u_charType_77(i32 noundef %47)
  %51 = icmp eq i8 %50, 16
  br i1 %51, label %.thread, label %52

52:                                               ; preds = %49
  %53 = load ptr, ptr @_ZN6icu_7715RegexStaticSets11gStaticSetsE, align 8, !tbaa !43
  %54 = getelementptr inbounds nuw i8, ptr %53, i64 208
  %55 = tail call noundef signext i8 @_ZNK6icu_7710UnicodeSet8containsEi(ptr noundef nonnull align 8 dereferenceable(200) %54, i32 noundef %47)
  br label %56

56:                                               ; preds = %52, %5
  %.023 = phi i8 [ 0, %5 ], [ %55, %52 ]
  %57 = getelementptr inbounds nuw i8, ptr %0, i64 32
  %58 = getelementptr inbounds nuw i8, ptr %0, i64 96
  br label %59

59:                                               ; preds = %.backedge, %56
  %60 = load ptr, ptr %57, align 8, !tbaa !77
  %61 = getelementptr inbounds nuw i8, ptr %60, i64 40
  %62 = load i32, ptr %61, align 8, !tbaa !95
  %63 = getelementptr inbounds nuw i8, ptr %60, i64 28
  %64 = load i32, ptr %63, align 4, !tbaa !87
  %.not31 = icmp sgt i32 %62, %64
  br i1 %.not31, label %70, label %65

65:                                               ; preds = %59
  %66 = getelementptr inbounds nuw i8, ptr %60, i64 32
  %67 = load i64, ptr %66, align 8, !tbaa !83
  %68 = sext i32 %62 to i64
  %69 = add nsw i64 %67, %68
  br label %76

70:                                               ; preds = %59
  %71 = getelementptr inbounds nuw i8, ptr %60, i64 56
  %72 = load ptr, ptr %71, align 8, !tbaa !89
  %73 = getelementptr inbounds nuw i8, ptr %72, i64 64
  %74 = load ptr, ptr %73, align 8, !tbaa !111
  %75 = tail call noundef i64 %74(ptr noundef nonnull %60)
  br label %76

76:                                               ; preds = %70, %65
  %77 = phi i64 [ %69, %65 ], [ %75, %70 ]
  %78 = load i64, ptr %58, align 8, !tbaa !72
  %.not32 = icmp sgt i64 %77, %78
  br i1 %.not32, label %79, label %.loopexit

79:                                               ; preds = %76
  %80 = load ptr, ptr %57, align 8, !tbaa !77
  %81 = getelementptr inbounds nuw i8, ptr %80, i64 40
  %82 = load i32, ptr %81, align 8, !tbaa !95
  %83 = icmp sgt i32 %82, 0
  br i1 %83, label %84, label %98

84:                                               ; preds = %79
  %85 = getelementptr inbounds nuw i8, ptr %80, i64 48
  %86 = load ptr, ptr %85, align 8, !tbaa !88
  %87 = zext nneg i32 %82 to i64
  %88 = getelementptr i16, ptr %86, i64 %87
  %89 = getelementptr i8, ptr %88, i64 -2
  %90 = load i16, ptr %89, align 2, !tbaa !93
  %91 = icmp ult i16 %90, -10240
  br i1 %91, label %92, label %98

92:                                               ; preds = %84
  %93 = add nsw i32 %82, -1
  store i32 %93, ptr %81, align 8, !tbaa !95
  %94 = zext nneg i32 %93 to i64
  %95 = getelementptr inbounds nuw i16, ptr %86, i64 %94
  %96 = load i16, ptr %95, align 2, !tbaa !93
  %97 = zext i16 %96 to i32
  br label %100

98:                                               ; preds = %84, %79
  %99 = tail call i32 @utext_previous32_77(ptr noundef nonnull %80)
  br label %100

100:                                              ; preds = %98, %92
  %101 = phi i32 [ %97, %92 ], [ %99, %98 ]
  %102 = tail call signext i8 @u_hasBinaryProperty_77(i32 noundef %101, i32 noundef 11)
  %.not33 = icmp eq i8 %102, 0
  br i1 %.not33, label %103, label %.backedge

.backedge:                                        ; preds = %100, %103
  br label %59

103:                                              ; preds = %100
  %104 = tail call signext i8 @u_charType_77(i32 noundef %101)
  %105 = icmp eq i8 %104, 16
  br i1 %105, label %.backedge, label %.thread36

.thread36:                                        ; preds = %103
  %106 = load ptr, ptr @_ZN6icu_7715RegexStaticSets11gStaticSetsE, align 8, !tbaa !43
  %107 = getelementptr inbounds nuw i8, ptr %106, i64 208
  %108 = tail call noundef signext i8 @_ZNK6icu_7710UnicodeSet8containsEi(ptr noundef nonnull align 8 dereferenceable(200) %107, i32 noundef %101)
  br label %.loopexit

.loopexit:                                        ; preds = %76, %.thread36
  %.120 = phi i8 [ %108, %.thread36 ], [ 0, %76 ]
  %109 = xor i8 %.120, %.023
  br label %.thread

.thread:                                          ; preds = %46, %49, %.loopexit
  %.1 = phi i8 [ %109, %.loopexit ], [ 0, %49 ], [ 0, %46 ]
  ret i8 %.1
}